target datalayout = "e-m:e-p270:32:32-p271:32:32-p272:64:64-i64:64-i128:128-f80:128-n8:16:32:64-S128"
target triple = "x86_64-pc-linux-gnu"

; Function Attrs: nounwind uwtable
define internal void @fade_samples_fltp(ptr noundef %0, ptr noundef %1, i32 noundef %2, i32 noundef %3, i32 noundef %4, i64 noundef %5, i64 noundef %6, i32 noundef %7, double noundef %8, double noundef %9) #1 {
  %11 = alloca ptr, align 8
  %12 = alloca ptr, align 8
  %13 = alloca i32, align 4
  %14 = alloca i32, align 4
  %15 = alloca i32, align 4
  %16 = alloca i64, align 8
  %17 = alloca i64, align 8
  %18 = alloca i32, align 4
  %19 = alloca double, align 8
  %20 = alloca double, align 8
  %21 = alloca i32, align 4
  %22 = alloca i32, align 4
  %23 = alloca double, align 8
  %24 = alloca ptr, align 8
  %25 = alloca ptr, align 8
  store ptr %0, ptr %11, align 8, !tbaa !77
  store ptr %1, ptr %12, align 8, !tbaa !77
  store i32 %2, ptr %13, align 4, !tbaa !30
  store i32 %3, ptr %14, align 4, !tbaa !30
  store i32 %4, ptr %15, align 4, !tbaa !30
  store i64 %5, ptr %16, align 8, !tbaa !58
  store i64 %6, ptr %17, align 8, !tbaa !58
  store i32 %7, ptr %18, align 4, !tbaa !30
  store double %8, ptr %19, align 8, !tbaa !78
  store double %9, ptr %20, align 8, !tbaa !78
  call void @llvm.lifetime.start.p0(i64 4, ptr %21) #10
  call void @llvm.lifetime.start.p0(i64 4, ptr %22) #10
  store i32 0, ptr %21, align 4, !tbaa !30
  br label %26

26:                                               ; preds = %74, %10
  %27 = load i32, ptr %21, align 4, !tbaa !30
  %28 = load i32, ptr %13, align 4, !tbaa !30
  %29 = icmp slt i32 %27, %28
  br i1 %29, label %30, label %77

30:                                               ; preds = %26
  call void @llvm.lifetime.start.p0(i64 8, ptr %23) #10
  %31 = load i32, ptr %18, align 4, !tbaa !30
  %32 = load i64, ptr %16, align 8, !tbaa !58
  %33 = load i32, ptr %21, align 4, !tbaa !30
  %34 = load i32, ptr %15, align 4, !tbaa !30
  %35 = mul nsw i32 %33, %34
  %36 = sext i32 %35 to i64
  %37 = add nsw i64 %32, %36
  %38 = load i64, ptr %17, align 8, !tbaa !58
  %39 = load double, ptr %19, align 8, !tbaa !78
  %40 = load double, ptr %20, align 8, !tbaa !78
  %41 = call nsz double @fade_gain(i32 noundef %31, i64 noundef %37, i64 noundef %38, double noundef %39, double noundef %40)
  store double %41, ptr %23, align 8, !tbaa !78
  store i32 0, ptr %22, align 4, !tbaa !30
  br label %42

42:                                               ; preds = %70, %30
  %43 = load i32, ptr %22, align 4, !tbaa !30
  %44 = load i32, ptr %14, align 4, !tbaa !30
  %45 = icmp slt i32 %43, %44
  br i1 %45, label %46, label %73

46:                                               ; preds = %42
  call void @llvm.lifetime.start.p0(i64 8, ptr %24) #10
  %47 = load ptr, ptr %11, align 8, !tbaa !77
  %48 = load i32, ptr %22, align 4, !tbaa !30
  %49 = sext i32 %48 to i64
  %50 = getelementptr inbounds ptr, ptr %47, i64 %49
  %51 = load ptr, ptr %50, align 8, !tbaa !29
  store ptr %51, ptr %24, align 8, !tbaa !88
  call void @llvm.lifetime.start.p0(i64 8, ptr %25) #10
  %52 = load ptr, ptr %12, align 8, !tbaa !77
  %53 = load i32, ptr %22, align 4, !tbaa !30
  %54 = sext i32 %53 to i64
  %55 = getelementptr inbounds ptr, ptr %52, i64 %54
  %56 = load ptr, ptr %55, align 8, !tbaa !29
  store ptr %56, ptr %25, align 8, !tbaa !88
  %57 = load ptr, ptr %25, align 8, !tbaa !88
  %58 = load i32, ptr %21, align 4, !tbaa !30
  %59 = sext i32 %58 to i64
  %60 = getelementptr inbounds float, ptr %57, i64 %59
  %61 = load float, ptr %60, align 4, !tbaa !90
  %62 = fpext nsz float %61 to double
  %63 = load double, ptr %23, align 8, !tbaa !78
  %64 = fmul nsz double %62, %63
  %65 = fptrunc nsz double %64 to float
  %66 = load ptr, ptr %24, align 8, !tbaa !88
  %67 = load i32, ptr %21, align 4, !tbaa !30
  %68 = sext i32 %67 to i64
  %69 = getelementptr inbounds float, ptr %66, i64 %68
  store float %65, ptr %69, align 4, !tbaa !90
  call void @llvm.lifetime.end.p0(i64 8, ptr %25) #10
  call void @llvm.lifetime.end.p0(i64 8, ptr %24) #10
  br label %70

70:                                               ; preds = %46
  %71 = load i32, ptr %22, align 4, !tbaa !30
  %72 = add nsw i32 %71, 1
  store i32 %72, ptr %22, align 4, !tbaa !30
  br label %42, !llvm.loop !96

73:                                               ; preds = %42
  call void @llvm.lifetime.end.p0(i64 8, ptr %23) #10
  br label %74

74:                                               ; preds = %73
  %75 = load i32, ptr %21, align 4, !tbaa !30
  %76 = add nsw i32 %75, 1
  store i32 %76, ptr %21, align 4, !tbaa !30
  br label %26, !llvm.loop !97

77:                                               ; preds = %26
  call void @llvm.lifetime.end.p0(i64 4, ptr %22) #10
  call void @llvm.lifetime.end.p0(i64 4, ptr %21) #10
  ret void
}